target datalayout = "e-m:e-p270:32:32-p271:32:32-p272:64:64-i64:64-i128:128-f80:128-n8:16:32:64-S128"
target triple = "x86_64-pc-linux-gnu"

%struct._zend_array = type { %struct._zend_refcounted_h, %union.anon.0, i32, %union.anon.1, i32, i32, i32, i32, i64, ptr }
%struct._zend_refcounted_h = type { i32, %union.anon }
%union.anon = type { i32 }
%union.anon.0 = type { i32 }
%union.anon.1 = type { ptr }
%struct._zend_llist = type { ptr, ptr, i64, i64, ptr, i8, ptr }
%struct._zval_struct = type { %union._zend_value, %union.anon.3, %union.anon.6 }
%union._zend_value = type { i64 }
%union.anon.3 = type { i32 }
%union.anon.6 = type { i32 }
%struct._sapi_globals_struct = type { ptr, %struct.sapi_request_info, %struct.sapi_headers_struct, i64, i8, i8, %struct.stat, ptr, ptr, ptr, i64, i32, i8, double, %struct._zend_array, %struct._zval_struct, %struct._zend_fcall_info_cache, %struct.sapi_request_parse_body_context }
%struct.sapi_request_info = type { ptr, ptr, ptr, i64, ptr, ptr, ptr, ptr, i8, i8, i8, ptr, ptr, ptr, ptr, ptr, ptr, ptr, i32, i32, ptr, i32 }
%struct.sapi_headers_struct = type { %struct._zend_llist, i32, i8, ptr, ptr }
%struct.stat = type { i64, i64, i64, i32, i32, i32, i32, i64, i64, i64, i64, %struct.timespec, %struct.timespec, %struct.timespec, [3 x i64] }
%struct.timespec = type { i64, i64 }
%struct._zend_fcall_info_cache = type { ptr, ptr, ptr, ptr, ptr }
%struct.sapi_request_parse_body_context = type { i8, [5 x %struct.anon.8] }
%struct.anon.8 = type { i8, i64 }
%struct._cwd_state = type { ptr, i64 }

@sapi_globals = external global %struct._sapi_globals_struct, align 8

; Function Attrs: nounwind uwtable
define ptr @expand_filepath_with_mode(ptr noundef %0, ptr noundef %1, ptr noundef %2, i64 noundef %3, i32 noundef %4) #0 {
  %6 = alloca ptr, align 8
  %7 = alloca ptr, align 8
  %8 = alloca ptr, align 8
  %9 = alloca ptr, align 8
  %10 = alloca i64, align 8
  %11 = alloca i32, align 4
  %12 = alloca %struct._cwd_state, align 8
  %13 = alloca [4096 x i8], align 16
  %14 = alloca i64, align 8
  %15 = alloca i64, align 8
  %16 = alloca ptr, align 8
  %17 = alloca ptr, align 8
  %18 = alloca i32, align 4
  store ptr %0, ptr %7, align 8
  store ptr %1, ptr %8, align 8
  store ptr %2, ptr %9, align 8
  store i64 %3, ptr %10, align 8
  store i32 %4, ptr %11, align 4
  %19 = load ptr, ptr %7, align 8
  %20 = getelementptr inbounds i8, ptr %19, i64 0
  %21 = load i8, ptr %20, align 1
  %22 = icmp ne i8 %21, 0
  br i1 %22, label %24, label %23

23:                                               ; preds = %5
  store ptr null, ptr %6, align 8
  br label %142

24:                                               ; preds = %5
  %25 = load ptr, ptr %7, align 8
  %26 = call i64 @strlen(ptr noundef %25) #11
  store i64 %26, ptr %15, align 8
  %27 = load ptr, ptr %7, align 8
  %28 = getelementptr inbounds i8, ptr %27, i64 0
  %29 = load i8, ptr %28, align 1
  %30 = sext i8 %29 to i32
  %31 = icmp eq i32 %30, 47
  br i1 %31, label %32, label %34

32:                                               ; preds = %24
  %33 = getelementptr inbounds [4096 x i8], ptr %13, i64 0, i64 0
  store i8 0, ptr %33, align 16
  br label %98

34:                                               ; preds = %24
  %35 = load ptr, ptr getelementptr inbounds (%struct._sapi_globals_struct, ptr @sapi_globals, i32 0, i32 1, i32 4), align 8
  store ptr %35, ptr %16, align 8
  %36 = load ptr, ptr %9, align 8
  %37 = icmp ne ptr %36, null
  br i1 %37, label %38, label %48

38:                                               ; preds = %34
  %39 = load i64, ptr %10, align 8
  %40 = icmp ugt i64 %39, 4095
  br i1 %40, label %41, label %42

41:                                               ; preds = %38
  store ptr null, ptr %6, align 8
  br label %142

42:                                               ; preds = %38
  %43 = load ptr, ptr %9, align 8
  store ptr %43, ptr %17, align 8
  %44 = getelementptr inbounds [4096 x i8], ptr %13, i64 0, i64 0
  %45 = load ptr, ptr %9, align 8
  %46 = load i64, ptr %10, align 8
  %47 = add i64 %46, 1
  call void @llvm.memcpy.p0.p0.i64(ptr align 16 %44, ptr align 1 %45, i64 %47, i1 false)
  br label %51

48:                                               ; preds = %34
  %49 = getelementptr inbounds [4096 x i8], ptr %13, i64 0, i64 0
  %50 = call ptr @getcwd(ptr noundef %49, i64 noundef 4096) #12
  store ptr %50, ptr %17, align 8
  br label %51

51:                                               ; preds = %48, %42
  %52 = load ptr, ptr %17, align 8
  %53 = icmp ne ptr %52, null
  br i1 %53, label %91, label %54

54:                                               ; preds = %51
  %55 = load ptr, ptr %16, align 8
  %56 = load ptr, ptr %7, align 8
  %57 = icmp ne ptr %55, %56
  br i1 %57, label %58, label %91

58:                                               ; preds = %54
  store i32 -1, ptr %18, align 4
  %59 = load ptr, ptr %7, align 8
  %60 = call i32 (ptr, i32, ...) @open(ptr noundef %59, i32 noundef 0)
  store i32 %60, ptr %18, align 4
  %61 = load i32, ptr %18, align 4
  %62 = icmp ne i32 %61, -1
  br i1 %62, label %63, label %88

63:                                               ; preds = %58
  %64 = load i64, ptr %15, align 8
  %65 = icmp ugt i64 %64, 4095
  br i1 %65, label %66, label %67

66:                                               ; preds = %63
  br label %69

67:                                               ; preds = %63
  %68 = load i64, ptr %15, align 8
  br label %69

69:                                               ; preds = %67, %66
  %70 = phi i64 [ 4095, %66 ], [ %68, %67 ]
  store i64 %70, ptr %14, align 8
  %71 = load ptr, ptr %8, align 8
  %72 = icmp ne ptr %71, null
  br i1 %72, label %73, label %80

73:                                               ; preds = %69
  %74 = load ptr, ptr %8, align 8
  %75 = load ptr, ptr %7, align 8
  %76 = load i64, ptr %14, align 8
  call void @llvm.memcpy.p0.p0.i64(ptr align 1 %74, ptr align 1 %75, i64 %76, i1 false)
  %77 = load ptr, ptr %8, align 8
  %78 = load i64, ptr %14, align 8
  %79 = getelementptr inbounds i8, ptr %77, i64 %78
  store i8 0, ptr %79, align 1
  br label %84

80:                                               ; preds = %69
  %81 = load ptr, ptr %7, align 8
  %82 = load i64, ptr %14, align 8
  %83 = call noalias ptr @_estrndup(ptr noundef %81, i64 noundef %82)
  store ptr %83, ptr %8, align 8
  br label %84

84:                                               ; preds = %80, %73
  %85 = load i32, ptr %18, align 4
  %86 = call i32 @close(i32 noundef %85)
  %87 = load ptr, ptr %8, align 8
  store ptr %87, ptr %6, align 8
  br label %142

88:                                               ; preds = %58
  %89 = getelementptr inbounds [4096 x i8], ptr %13, i64 0, i64 0
  store i8 0, ptr %89, align 16
  br label %90

90:                                               ; preds = %88
  br label %97

91:                                               ; preds = %54, %51
  %92 = load ptr, ptr %17, align 8
  %93 = icmp ne ptr %92, null
  br i1 %93, label %96, label %94

94:                                               ; preds = %91
  %95 = getelementptr inbounds [4096 x i8], ptr %13, i64 0, i64 0
  store i8 0, ptr %95, align 16
  br label %96

96:                                               ; preds = %94, %91
  br label %97

97:                                               ; preds = %96, %90
  br label %98

98:                                               ; preds = %97, %32
  %99 = getelementptr inbounds [4096 x i8], ptr %13, i64 0, i64 0
  %100 = call noalias ptr @_estrdup(ptr noundef %99)
  %101 = getelementptr inbounds %struct._cwd_state, ptr %12, i32 0, i32 0
  store ptr %100, ptr %101, align 8
  %102 = getelementptr inbounds [4096 x i8], ptr %13, i64 0, i64 0
  %103 = call i64 @strlen(ptr noundef %102) #11
  %104 = getelementptr inbounds %struct._cwd_state, ptr %12, i32 0, i32 1
  store i64 %103, ptr %104, align 8
  %105 = load ptr, ptr %7, align 8
  %106 = load i32, ptr %11, align 4
  %107 = call i32 @virtual_file_ex(ptr noundef %12, ptr noundef %105, ptr noundef null, i32 noundef %106)
  %108 = icmp ne i32 %107, 0
  br i1 %108, label %109, label %112

109:                                              ; preds = %98
  %110 = getelementptr inbounds %struct._cwd_state, ptr %12, i32 0, i32 0
  %111 = load ptr, ptr %110, align 8
  call void @_efree(ptr noundef %111)
  store ptr null, ptr %6, align 8
  br label %142

112:                                              ; preds = %98
  %113 = load ptr, ptr %8, align 8
  %114 = icmp ne ptr %113, null
  br i1 %114, label %115, label %132

115:                                              ; preds = %112
  %116 = getelementptr inbounds %struct._cwd_state, ptr %12, i32 0, i32 1
  %117 = load i64, ptr %116, align 8
  %118 = icmp ugt i64 %117, 4095
  br i1 %118, label %119, label %120

119:                                              ; preds = %115
  br label %123

120:                                              ; preds = %115
  %121 = getelementptr inbounds %struct._cwd_state, ptr %12, i32 0, i32 1
  %122 = load i64, ptr %121, align 8
  br label %123

123:                                              ; preds = %120, %119
  %124 = phi i64 [ 4095, %119 ], [ %122, %120 ]
  store i64 %124, ptr %14, align 8
  %125 = load ptr, ptr %8, align 8
  %126 = getelementptr inbounds %struct._cwd_state, ptr %12, i32 0, i32 0
  %127 = load ptr, ptr %126, align 8
  %128 = load i64, ptr %14, align 8
  call void @llvm.memcpy.p0.p0.i64(ptr align 1 %125, ptr align 1 %127, i64 %128, i1 false)
  %129 = load ptr, ptr %8, align 8
  %130 = load i64, ptr %14, align 8
  %131 = getelementptr inbounds i8, ptr %129, i64 %130
  store i8 0, ptr %131, align 1
  br label %138

132:                                              ; preds = %112
  %133 = getelementptr inbounds %struct._cwd_state, ptr %12, i32 0, i32 0
  %134 = load ptr, ptr %133, align 8
  %135 = getelementptr inbounds %struct._cwd_state, ptr %12, i32 0, i32 1
  %136 = load i64, ptr %135, align 8
  %137 = call noalias ptr @_estrndup(ptr noundef %134, i64 noundef %136)
  store ptr %137, ptr %8, align 8
  br label %138

138:                                              ; preds = %132, %123
  %139 = getelementptr inbounds %struct._cwd_state, ptr %12, i32 0, i32 0
  %140 = load ptr, ptr %139, align 8
  call void @_efree(ptr noundef %140)
  %141 = load ptr, ptr %8, align 8
  store ptr %141, ptr %6, align 8
  br label %142

142:                                              ; preds = %138, %109, %84, %41, %23
  %143 = load ptr, ptr %6, align 8
  ret ptr %143
}