; Function Attrs: nounwind uwtable
define ptr @expand_filepath_with_mode(ptr noundef %0, ptr noundef writeonly %1, ptr noundef readonly %2, i64 noundef %3, i32 noundef %4) local_unnamed_addr #0 {
  %6 = alloca %struct._cwd_state, align 8
  %7 = alloca [4096 x i8], align 16
  %8 = load i8, ptr %0, align 1
  %.not = icmp eq i8 %8, 0
  br i1 %.not, label %53, label %9

9:                                                ; preds = %5
  %10 = tail call i64 @strlen(ptr noundef nonnull dereferenceable(1) %0) #17
  %11 = icmp eq i8 %8, 47
  br i1 %11, label %12, label %13

12:                                               ; preds = %9
  store i8 0, ptr %7, align 16
  br label %34

13:                                               ; preds = %9
  %.not43 = icmp eq ptr %2, null
  br i1 %.not43, label %17, label %14

14:                                               ; preds = %13
  %15 = icmp ugt i64 %3, 4095
  br i1 %15, label %53, label %.thread55

.thread55:                                        ; preds = %14
  %16 = add nuw nsw i64 %3, 1
  call void @llvm.memcpy.p0.p0.i64(ptr noundef nonnull align 16 dereferenceable(1) %7, ptr noundef nonnull align 1 dereferenceable(1) %2, i64 %16, i1 false)
  br label %34

17:                                               ; preds = %13
  %18 = load ptr, ptr getelementptr inbounds (%struct._sapi_globals_struct, ptr @sapi_globals, i64 0, i32 1, i32 4), align 8
  %19 = call ptr @getcwd(ptr noundef nonnull %7, i64 noundef 4096) #16
  %20 = icmp ne ptr %19, null
  %.not45 = icmp eq ptr %18, %0
  %or.cond = select i1 %20, i1 true, i1 %.not45
  br i1 %or.cond, label %32, label %21

21:                                               ; preds = %17
  %22 = call i32 (ptr, i32, ...) @open(ptr noundef nonnull %0, i32 noundef 0) #16
  %.not46 = icmp eq i32 %22, -1
  br i1 %.not46, label %31, label %23

23:                                               ; preds = %21
  %24 = call i64 @llvm.umin.i64(i64 %10, i64 4095)
  %.not47 = icmp eq ptr %1, null
  br i1 %.not47, label %27, label %25

25:                                               ; preds = %23
  call void @llvm.memcpy.p0.p0.i64(ptr nonnull align 1 %1, ptr nonnull align 1 %0, i64 %24, i1 false)
  %26 = getelementptr inbounds i8, ptr %1, i64 %24
  store i8 0, ptr %26, align 1
  br label %29

27:                                               ; preds = %23
  %28 = call noalias ptr @_estrndup(ptr noundef nonnull %0, i64 noundef %24) #16
  br label %29

29:                                               ; preds = %27, %25
  %.035 = phi ptr [ %1, %25 ], [ %28, %27 ]
  %30 = call i32 @close(i32 noundef %22) #16
  br label %53

31:                                               ; preds = %21
  store i8 0, ptr %7, align 16
  br label %34

32:                                               ; preds = %17
  br i1 %20, label %34, label %33

33:                                               ; preds = %32
  store i8 0, ptr %7, align 16
  br label %34

34:                                               ; preds = %.thread55, %31, %33, %32, %12
  %35 = call noalias ptr @_estrdup(ptr noundef nonnull %7) #16
  store ptr %35, ptr %6, align 8
  %36 = call i64 @strlen(ptr noundef nonnull dereferenceable(1) %7) #17
  %37 = getelementptr inbounds i8, ptr %6, i64 8
  store i64 %36, ptr %37, align 8
  %38 = call i32 @virtual_file_ex(ptr noundef nonnull %6, ptr noundef nonnull %0, ptr noundef null, i32 noundef %4) #16
  %.not48 = icmp eq i32 %38, 0
  br i1 %.not48, label %41, label %39

39:                                               ; preds = %34
  %40 = load ptr, ptr %6, align 8
  call void @_efree(ptr noundef %40) #16
  br label %53

41:                                               ; preds = %34
  %.not49 = icmp eq ptr %1, null
  br i1 %.not49, label %47, label %42

42:                                               ; preds = %41
  %43 = load i64, ptr %37, align 8
  %44 = call i64 @llvm.umin.i64(i64 %43, i64 4095)
  %45 = load ptr, ptr %6, align 8
  call void @llvm.memcpy.p0.p0.i64(ptr nonnull align 1 %1, ptr align 1 %45, i64 %44, i1 false)
  %46 = getelementptr inbounds i8, ptr %1, i64 %44
  store i8 0, ptr %46, align 1
  br label %51

47:                                               ; preds = %41
  %48 = load ptr, ptr %6, align 8
  %49 = load i64, ptr %37, align 8
  %50 = call noalias ptr @_estrndup(ptr noundef %48, i64 noundef %49) #16
  %.pre = load ptr, ptr %6, align 8
  br label %51

51:                                               ; preds = %47, %42
  %52 = phi ptr [ %45, %42 ], [ %.pre, %47 ]
  %.1 = phi ptr [ %1, %42 ], [ %50, %47 ]
  call void @_efree(ptr noundef %52) #16
  br label %53

53:                                               ; preds = %14, %5, %51, %39, %29
  %.034 = phi ptr [ null, %39 ], [ %.1, %51 ], [ %.035, %29 ], [ null, %5 ], [ null, %14 ]
  ret ptr %.034
}